target datalayout = "e-m:e-p270:32:32-p271:32:32-p272:64:64-i64:64-i128:128-f80:128-n8:16:32:64-S128"
target triple = "x86_64-pc-linux-gnu"

%"class.Imf_3_4::TiledInputFile" = type { %"class.Imf_3_4::Context", %"class.std::shared_ptr.0" }
%"class.Imf_3_4::Context" = type { %"class.std::shared_ptr" }
%"class.std::shared_ptr" = type { %"class.std::__shared_ptr" }
%"class.std::__shared_ptr" = type { ptr, %"class.std::__shared_count" }
%"class.std::__shared_count" = type { ptr }
%"class.std::shared_ptr.0" = type { %"class.std::__shared_ptr.1" }
%"class.std::__shared_ptr.1" = type { ptr, %"class.std::__shared_count" }
%"struct.Imf_3_4::TiledInputFile::Data" = type { ptr, i32, i32, %"class.Imf_3_4::Header", i8, i32, i32, i32, i32, i32, i32, %"class.std::vector", %"class.Imf_3_4::FrameBuffer", %"class.std::vector.11", %"class.std::vector.16", %"class.std::mutex" }
%"class.Imf_3_4::Header" = type <{ %"class.std::map", i8, [7 x i8] }>
%"class.std::map" = type { %"class.std::_Rb_tree" }
%"class.std::_Rb_tree" = type { %"struct.std::_Rb_tree<Imf_3_4::Name, std::pair<const Imf_3_4::Name, Imf_3_4::Attribute *>, std::_Select1st<std::pair<const Imf_3_4::Name, Imf_3_4::Attribute *>>, std::less<Imf_3_4::Name>>::_Rb_tree_impl" }
%"struct.std::_Rb_tree<Imf_3_4::Name, std::pair<const Imf_3_4::Name, Imf_3_4::Attribute *>, std::_Select1st<std::pair<const Imf_3_4::Name, Imf_3_4::Attribute *>>, std::less<Imf_3_4::Name>>::_Rb_tree_impl" = type { [8 x i8], %"struct.std::_Rb_tree_header" }
%"struct.std::_Rb_tree_header" = type { %"struct.std::_Rb_tree_node_base", i64 }
%"struct.std::_Rb_tree_node_base" = type { i32, ptr, ptr, ptr }
%"class.std::vector" = type { %"struct.std::_Vector_base" }
%"struct.std::_Vector_base" = type { %"struct.std::_Vector_base<char, std::allocator<char>>::_Vector_impl" }
%"struct.std::_Vector_base<char, std::allocator<char>>::_Vector_impl" = type { %"struct.std::_Vector_base<char, std::allocator<char>>::_Vector_impl_data" }
%"struct.std::_Vector_base<char, std::allocator<char>>::_Vector_impl_data" = type { ptr, ptr, ptr }
%"class.Imf_3_4::FrameBuffer" = type { %"class.std::map.6" }
%"class.std::map.6" = type { %"class.std::_Rb_tree.7" }
%"class.std::_Rb_tree.7" = type { %"struct.std::_Rb_tree<Imf_3_4::Name, std::pair<const Imf_3_4::Name, Imf_3_4::Slice>, std::_Select1st<std::pair<const Imf_3_4::Name, Imf_3_4::Slice>>, std::less<Imf_3_4::Name>>::_Rb_tree_impl" }
%"struct.std::_Rb_tree<Imf_3_4::Name, std::pair<const Imf_3_4::Name, Imf_3_4::Slice>, std::_Select1st<std::pair<const Imf_3_4::Name, Imf_3_4::Slice>>, std::less<Imf_3_4::Name>>::_Rb_tree_impl" = type { [8 x i8], %"struct.std::_Rb_tree_header" }
%"class.std::vector.11" = type { %"struct.std::_Vector_base.12" }
%"struct.std::_Vector_base.12" = type { %"struct.std::_Vector_base<Imf_3_4::Slice, std::allocator<Imf_3_4::Slice>>::_Vector_impl" }
%"struct.std::_Vector_base<Imf_3_4::Slice, std::allocator<Imf_3_4::Slice>>::_Vector_impl" = type { %"struct.std::_Vector_base<Imf_3_4::Slice, std::allocator<Imf_3_4::Slice>>::_Vector_impl_data" }
%"struct.std::_Vector_base<Imf_3_4::Slice, std::allocator<Imf_3_4::Slice>>::_Vector_impl_data" = type { ptr, ptr, ptr }
%"class.std::vector.16" = type { %"struct.std::_Vector_base.17" }
%"struct.std::_Vector_base.17" = type { %"struct.std::_Vector_base<std::__cxx11::basic_string<char>, std::allocator<std::__cxx11::basic_string<char>>>::_Vector_impl" }
%"struct.std::_Vector_base<std::__cxx11::basic_string<char>, std::allocator<std::__cxx11::basic_string<char>>>::_Vector_impl" = type { %"struct.std::_Vector_base<std::__cxx11::basic_string<char>, std::allocator<std::__cxx11::basic_string<char>>>::_Vector_impl_data" }
%"struct.std::_Vector_base<std::__cxx11::basic_string<char>, std::allocator<std::__cxx11::basic_string<char>>>::_Vector_impl_data" = type { ptr, ptr, ptr }
%"class.std::mutex" = type { %"class.std::__mutex_base" }
%"class.std::__mutex_base" = type { %union.pthread_mutex_t }
%union.pthread_mutex_t = type { %struct.__pthread_mutex_s }
%struct.__pthread_mutex_s = type { i32, i32, i32, i32, i32, i16, i16, %struct.__pthread_internal_list }
%struct.__pthread_internal_list = type { ptr, ptr }
%"class.std::lock_guard" = type { ptr }

; Function Attrs: inlinehint mustprogress nounwind uwtable
define internal noundef i32 @_ZL18__gthread_active_pv() #8 {
  ret i32 1
}

; Function Attrs: inlinehint mustprogress nounwind uwtable
define internal noundef i32 @_ZL22__gthread_mutex_unlockP15pthread_mutex_t(ptr noundef %0) #8 {
  %2 = alloca i32, align 4
  %3 = alloca ptr, align 8
  store ptr %0, ptr %3, align 8, !tbaa !105
  %4 = call noundef i32 @_ZL18__gthread_active_pv()
  %5 = icmp ne i32 %4, 0
  br i1 %5, label %6, label %9

6:                                                ; preds = %1
  %7 = load ptr, ptr %3, align 8, !tbaa !105
  %8 = call i32 @pthread_mutex_unlock(ptr noundef %7) #3
  store i32 %8, ptr %2, align 4
  br label %10

9:                                                ; preds = %1
  store i32 0, ptr %2, align 4
  br label %10

10:                                               ; preds = %9, %6
  %11 = load i32, ptr %2, align 4
  ret i32 %11
}

; Function Attrs: inlinehint mustprogress uwtable
define internal noundef i32 @_ZL20__gthread_mutex_lockP15pthread_mutex_t(ptr noundef %0) #5 {
  %2 = alloca i32, align 4
  %3 = alloca ptr, align 8
  store ptr %0, ptr %3, align 8, !tbaa !105
  %4 = call noundef i32 @_ZL18__gthread_active_pv()
  %5 = icmp ne i32 %4, 0
  br i1 %5, label %6, label %9

6:                                                ; preds = %1
  %7 = load ptr, ptr %3, align 8, !tbaa !105
  %8 = call i32 @pthread_mutex_lock(ptr noundef %7) #3
  store i32 %8, ptr %2, align 4
  br label %10

9:                                                ; preds = %1
  store i32 0, ptr %2, align 4
  br label %10

10:                                               ; preds = %9, %6
  %11 = load i32, ptr %2, align 4
  ret i32 %11
}

; Function Attrs: mustprogress nounwind uwtable
define linkonce_odr hidden noundef ptr @_ZNKSt12__shared_ptrIN7Imf_3_414TiledInputFile4DataELN9__gnu_cxx12_Lock_policyE2EE3getEv(ptr noundef nonnull align 8 dereferenceable(16) %0) #7 comdat align 2 {
  %2 = alloca ptr, align 8
  store ptr %0, ptr %2, align 8, !tbaa !64
  %3 = load ptr, ptr %2, align 8
  %4 = getelementptr inbounds nuw %"class.std::__shared_ptr.1", ptr %3, i32 0, i32 0
  %5 = load ptr, ptr %4, align 8, !tbaa !379
  ret ptr %5
}

; Function Attrs: noinline noreturn nounwind uwtable
define linkonce_odr hidden void @__clang_call_terminate(ptr noundef %0) #11 comdat {
  %2 = call ptr @__cxa_begin_catch(ptr %0) #3
  call void @_ZSt9terminatev() #24
  unreachable
}

; Function Attrs: mustprogress uwtable
define linkonce_odr hidden void @_ZNSt5mutex6unlockEv(ptr noundef nonnull align 8 dereferenceable(40) %0) #4 comdat align 2 {
  %2 = alloca ptr, align 8
  store ptr %0, ptr %2, align 8, !tbaa !99
  %3 = load ptr, ptr %2, align 8
  %4 = getelementptr inbounds nuw %"class.std::__mutex_base", ptr %3, i32 0, i32 0
  %5 = call noundef i32 @_ZL22__gthread_mutex_unlockP15pthread_mutex_t(ptr noundef %4)
  ret void
}

; Function Attrs: mustprogress uwtable
define linkonce_odr hidden void @_ZNSt5mutex4lockEv(ptr noundef nonnull align 8 dereferenceable(40) %0) #4 comdat align 2 {
  %2 = alloca ptr, align 8
  %3 = alloca i32, align 4
  store ptr %0, ptr %2, align 8, !tbaa !99
  %4 = load ptr, ptr %2, align 8
  call void @llvm.lifetime.start.p0(i64 4, ptr %3) #3
  %5 = getelementptr inbounds nuw %"class.std::__mutex_base", ptr %4, i32 0, i32 0
  %6 = call noundef i32 @_ZL20__gthread_mutex_lockP15pthread_mutex_t(ptr noundef %5)
  store i32 %6, ptr %3, align 4, !tbaa !12
  %7 = load i32, ptr %3, align 4, !tbaa !12
  %8 = icmp ne i32 %7, 0
  br i1 %8, label %9, label %11

9:                                                ; preds = %1
  %10 = load i32, ptr %3, align 4, !tbaa !12
  call void @_ZSt20__throw_system_errori(i32 noundef %10) #23
  unreachable

11:                                               ; preds = %1
  call void @llvm.lifetime.end.p0(i64 4, ptr %3) #3
  ret void
}

; Function Attrs: mustprogress nounwind uwtable
define linkonce_odr hidden noundef ptr @_ZNKSt19__shared_ptr_accessIN7Imf_3_414TiledInputFile4DataELN9__gnu_cxx12_Lock_policyE2ELb0ELb0EE6_M_getEv(ptr noundef nonnull align 1 dereferenceable(1) %0) #7 comdat align 2 {
  %2 = alloca ptr, align 8
  store ptr %0, ptr %2, align 8, !tbaa !23
  %3 = load ptr, ptr %2, align 8
  %4 = call noundef ptr @_ZNKSt12__shared_ptrIN7Imf_3_414TiledInputFile4DataELN9__gnu_cxx12_Lock_policyE2EE3getEv(ptr noundef nonnull align 8 dereferenceable(16) %3) #3
  ret ptr %4
}

; Function Attrs: mustprogress nounwind uwtable
define linkonce_odr hidden void @_ZNSt10lock_guardISt5mutexED2Ev(ptr noundef nonnull align 8 dereferenceable(8) %0) unnamed_addr #7 comdat align 2 personality ptr @__gxx_personality_v0 {
  %2 = alloca ptr, align 8
  store ptr %0, ptr %2, align 8, !tbaa !97
  %3 = load ptr, ptr %2, align 8
  %4 = getelementptr inbounds nuw %"class.std::lock_guard", ptr %3, i32 0, i32 0
  %5 = load ptr, ptr %4, align 8, !tbaa !101
  invoke void @_ZNSt5mutex6unlockEv(ptr noundef nonnull align 8 dereferenceable(40) %5)
          to label %6 unwind label %7

6:                                                ; preds = %1
  ret void

7:                                                ; preds = %1
  %8 = landingpad { ptr, i32 }
          catch ptr null
  %9 = extractvalue { ptr, i32 } %8, 0
  call void @__clang_call_terminate(ptr %9) #24
  unreachable
}

; Function Attrs: mustprogress uwtable
define linkonce_odr hidden void @_ZNSt10lock_guardISt5mutexEC2ERS0_(ptr noundef nonnull align 8 dereferenceable(8) %0, ptr noundef nonnull align 8 dereferenceable(40) %1) unnamed_addr #4 comdat align 2 {
  %3 = alloca ptr, align 8
  %4 = alloca ptr, align 8
  store ptr %0, ptr %3, align 8, !tbaa !97
  store ptr %1, ptr %4, align 8, !tbaa !99
  %5 = load ptr, ptr %3, align 8
  %6 = getelementptr inbounds nuw %"class.std::lock_guard", ptr %5, i32 0, i32 0
  %7 = load ptr, ptr %4, align 8, !tbaa !99
  store ptr %7, ptr %6, align 8, !tbaa !99
  %8 = getelementptr inbounds nuw %"class.std::lock_guard", ptr %5, i32 0, i32 0
  %9 = load ptr, ptr %8, align 8, !tbaa !101
  call void @_ZNSt5mutex4lockEv(ptr noundef nonnull align 8 dereferenceable(40) %9)
  ret void
}

; Function Attrs: mustprogress nounwind uwtable
define linkonce_odr hidden noundef ptr @_ZNKSt19__shared_ptr_accessIN7Imf_3_414TiledInputFile4DataELN9__gnu_cxx12_Lock_policyE2ELb0ELb0EEptEv(ptr noundef nonnull align 1 dereferenceable(1) %0) #7 comdat align 2 {
  %2 = alloca ptr, align 8
  store ptr %0, ptr %2, align 8, !tbaa !23
  %3 = load ptr, ptr %2, align 8
  %4 = call noundef ptr @_ZNKSt19__shared_ptr_accessIN7Imf_3_414TiledInputFile4DataELN9__gnu_cxx12_Lock_policyE2ELb0ELb0EE6_M_getEv(ptr noundef nonnull align 1 dereferenceable(1) %3) #3
  ret ptr %4
}

; Function Attrs: mustprogress uwtable
define noundef nonnull align 8 dereferenceable(48) ptr @_ZNK7Imf_3_414TiledInputFile11frameBufferEv(ptr noundef nonnull align 8 dereferenceable(32) %0) #4 align 2 {
  %2 = alloca ptr, align 8
  %3 = alloca %"class.std::lock_guard", align 8
  store ptr %0, ptr %2, align 8, !tbaa !3
  %4 = load ptr, ptr %2, align 8
  call void @llvm.lifetime.start.p0(i64 8, ptr %3) #3
  %5 = getelementptr inbounds nuw %"class.Imf_3_4::TiledInputFile", ptr %4, i32 0, i32 1
  %6 = call noundef ptr @_ZNKSt19__shared_ptr_accessIN7Imf_3_414TiledInputFile4DataELN9__gnu_cxx12_Lock_policyE2ELb0ELb0EEptEv(ptr noundef nonnull align 1 dereferenceable(1) %5) #3
  %7 = getelementptr inbounds nuw %"struct.Imf_3_4::TiledInputFile::Data", ptr %6, i32 0, i32 15
  call void @_ZNSt10lock_guardISt5mutexEC2ERS0_(ptr noundef nonnull align 8 dereferenceable(8) %3, ptr noundef nonnull align 8 dereferenceable(40) %7)
  %8 = getelementptr inbounds nuw %"class.Imf_3_4::TiledInputFile", ptr %4, i32 0, i32 1
  %9 = call noundef ptr @_ZNKSt19__shared_ptr_accessIN7Imf_3_414TiledInputFile4DataELN9__gnu_cxx12_Lock_policyE2ELb0ELb0EEptEv(ptr noundef nonnull align 1 dereferenceable(1) %8) #3
  %10 = getelementptr inbounds nuw %"struct.Imf_3_4::TiledInputFile::Data", ptr %9, i32 0, i32 12
  call void @_ZNSt10lock_guardISt5mutexED2Ev(ptr noundef nonnull align 8 dereferenceable(8) %3) #3
  call void @llvm.lifetime.end.p0(i64 8, ptr %3) #3
  ret ptr %10
}